; ModuleID = '40/1931.c'
source_filename = "40/1931.c"
target datalayout = "e-m:e-p270:32:32-p271:32:32-p272:64:64-i64:64-f80:128-n8:16:32:64-S128"
target triple = "x86_64-pc-linux-gnu"

@.str = private unnamed_addr constant [4 x i8] c"%lf\00", align 1
@.str.1 = private unnamed_addr constant [15 x i8] c"Invalid input\0A\00", align 1
@.str.2 = private unnamed_addr constant [6 x i8] c"%.4lf\00", align 1

; Function Attrs: noinline nounwind uwtable
define dso_local double @s(double %0, double %1, double %2, double %3) #0 {
  %5 = alloca double, align 8
  %6 = alloca double, align 8
  %7 = alloca double, align 8
  %8 = alloca double, align 8
  %9 = alloca double, align 8
  store double %0, double* %5, align 8
  store double %1, double* %6, align 8
  store double %2, double* %7, align 8
  store double %3, double* %8, align 8
  %10 = load double, double* %5, align 8
  %11 = load double, double* %6, align 8
  %12 = fadd double %10, %11
  %13 = load double, double* %7, align 8
  %14 = fadd double %12, %13
  %15 = load double, double* %8, align 8
  %16 = fadd double %14, %15
  %17 = fdiv double %16, 2.000000e+00
  store double %17, double* %9, align 8
  %18 = load double, double* %9, align 8
  ret double %18
}

; Function Attrs: noinline nounwind uwtable
define dso_local double @cos2(double %0) #0 {
  %2 = alloca double, align 8
  %3 = alloca double, align 8
  %4 = alloca double, align 8
  store double %0, double* %2, align 8
  %5 = load double, double* %2, align 8
  %6 = fdiv double %5, 2.000000e+00
  %7 = fmul double %6, 0x400921FB4D12D84A
  %8 = fdiv double %7, 1.800000e+02
  %9 = call double @cos(double %8) #3
  store double %9, double* %3, align 8
  %10 = load double, double* %3, align 8
  %11 = load double, double* %3, align 8
  %12 = fmul double %10, %11
  store double %12, double* %4, align 8
  %13 = load double, double* %4, align 8
  ret double %13
}

; Function Attrs: nounwind
declare dso_local double @cos(double) #1

; Function Attrs: noinline nounwind uwtable
define dso_local void @main() #0 {
  %1 = alloca double, align 8
  %2 = alloca double, align 8
  %3 = alloca double, align 8
  %4 = alloca double, align 8
  %5 = alloca double, align 8
  %6 = alloca double, align 8
  %7 = alloca double, align 8
  %8 = call i32 (i8*, ...) @__isoc99_scanf(i8* getelementptr inbounds ([4 x i8], [4 x i8]* @.str, i64 0, i64 0), double* %3)
  %9 = call i32 (i8*, ...) @__isoc99_scanf(i8* getelementptr inbounds ([4 x i8], [4 x i8]* @.str, i64 0, i64 0), double* %4)
  %10 = call i32 (i8*, ...) @__isoc99_scanf(i8* getelementptr inbounds ([4 x i8], [4 x i8]* @.str, i64 0, i64 0), double* %5)
  %11 = call i32 (i8*, ...) @__isoc99_scanf(i8* getelementptr inbounds ([4 x i8], [4 x i8]* @.str, i64 0, i64 0), double* %6)
  %12 = call i32 (i8*, ...) @__isoc99_scanf(i8* getelementptr inbounds ([4 x i8], [4 x i8]* @.str, i64 0, i64 0), double* %7)
  %13 = load double, double* %3, align 8
  %14 = load double, double* %4, align 8
  %15 = load double, double* %5, align 8
  %16 = load double, double* %6, align 8
  %17 = call double @s(double %13, double %14, double %15, double %16)
  %18 = load double, double* %3, align 8
  %19 = fsub double %17, %18
  %20 = load double, double* %3, align 8
  %21 = load double, double* %4, align 8
  %22 = load double, double* %5, align 8
  %23 = load double, double* %6, align 8
  %24 = call double @s(double %20, double %21, double %22, double %23)
  %25 = load double, double* %4, align 8
  %26 = fsub double %24, %25
  %27 = fmul double %19, %26
  %28 = load double, double* %3, align 8
  %29 = load double, double* %4, align 8
  %30 = load double, double* %5, align 8
  %31 = load double, double* %6, align 8
  %32 = call double @s(double %28, double %29, double %30, double %31)
  %33 = load double, double* %5, align 8
  %34 = fsub double %32, %33
  %35 = fmul double %27, %34
  %36 = load double, double* %3, align 8
  %37 = load double, double* %4, align 8
  %38 = load double, double* %5, align 8
  %39 = load double, double* %6, align 8
  %40 = call double @s(double %36, double %37, double %38, double %39)
  %41 = load double, double* %6, align 8
  %42 = fsub double %40, %41
  %43 = fmul double %35, %42
  %44 = load double, double* %3, align 8
  %45 = load double, double* %4, align 8
  %46 = fmul double %44, %45
  %47 = load double, double* %5, align 8
  %48 = fmul double %46, %47
  %49 = load double, double* %6, align 8
  %50 = fmul double %48, %49
  %51 = load double, double* %7, align 8
  %52 = call double @cos2(double %51)
  %53 = fmul double %50, %52
  %54 = fsub double %43, %53
  store double %54, double* %2, align 8
  %55 = load double, double* %2, align 8
  %56 = fcmp olt double %55, 0.000000e+00
  br i1 %56, label %57, label %59

57:                                               ; preds = %0
  %58 = call i32 (i8*, ...) @printf(i8* getelementptr inbounds ([15 x i8], [15 x i8]* @.str.1, i64 0, i64 0))
  br label %64

59:                                               ; preds = %0
  %60 = load double, double* %2, align 8
  %61 = call double @sqrt(double %60) #3
  store double %61, double* %1, align 8
  %62 = load double, double* %1, align 8
  %63 = call i32 (i8*, ...) @printf(i8* getelementptr inbounds ([6 x i8], [6 x i8]* @.str.2, i64 0, i64 0), double %62)
  br label %64

64:                                               ; preds = %59, %57
  ret void
}

declare dso_local i32 @__isoc99_scanf(i8*, ...) #2

declare dso_local i32 @printf(i8*, ...) #2

; Function Attrs: nounwind
declare dso_local double @sqrt(double) #1


!llvm.module.flags = !{!0}
!llvm.ident = !{!1}

!0 = !{i32 1, !"wchar_size", i32 4}
!1 = !{!"clang version 10.0.0-4ubuntu1 "}
